target datalayout = "e-m:e-p270:32:32-p271:32:32-p272:64:64-i64:64-i128:128-f80:128-n8:16:32:64-S128"
target triple = "x86_64-pc-linux-gnu"

%struct.dt_pthread_mutex_t = type { %union.pthread_mutex_t }
%union.pthread_mutex_t = type { %struct.__pthread_mutex_s }
%struct.__pthread_mutex_s = type { i32, i32, i32, i32, i32, i16, i16, %struct.__pthread_internal_list }
%struct.__pthread_internal_list = type { ptr, ptr }
%struct.dt_camera_shared_t = type { ptr }
%struct.dt_camera_import_t = type { %struct.dt_camera_shared_t, ptr, ptr, ptr, double, i32 }
%struct.dt_camera_t = type { ptr, ptr, %struct.CameraText, ptr, ptr, %struct.dt_pthread_mutex_t, i32, i32, i32, i32, i32, i32, i32, i32, i32, ptr, %struct.dt_pthread_mutex_t, ptr, %struct.anon, ptr, ptr, i32, i32, i32, i32, ptr, i32, i32, i32, i32, i32, i32, i32, i32, i64, %struct.dt_pthread_mutex_t, %struct.dt_pthread_mutex_t }
%struct.CameraText = type { [32768 x i8] }
%struct.anon = type { ptr, i32 }

@.str.9 = private unnamed_addr constant [35 x i8] c"import selected images from camera\00", align 1
@.str.10 = private unnamed_addr constant [26 x i8] c"import images from camera\00", align 1
@.str.11 = private unnamed_addr constant [23 x i8] c"ui_last/import_jobcode\00", align 1

; Function Attrs: nounwind uwtable
define internal ptr @dt_camera_import_alloc() #0 {
  %1 = alloca ptr, align 8
  %2 = alloca ptr, align 8
  %3 = alloca i32, align 4
  call void @llvm.lifetime.start.p0(i64 8, ptr %2) #7
  %4 = call noalias ptr @calloc(i64 noundef 1, i64 noundef 48) #9
  store ptr %4, ptr %2, align 8, !tbaa !72
  %5 = load ptr, ptr %2, align 8, !tbaa !72
  %6 = icmp ne ptr %5, null
  br i1 %6, label %8, label %7

7:                                                ; preds = %0
  store ptr null, ptr %1, align 8
  store i32 1, ptr %3, align 4
  br label %14

8:                                                ; preds = %0
  %9 = call ptr (...) @dt_import_session_new()
  %10 = load ptr, ptr %2, align 8, !tbaa !72
  %11 = getelementptr inbounds nuw %struct.dt_camera_import_t, ptr %10, i32 0, i32 0
  %12 = getelementptr inbounds nuw %struct.dt_camera_shared_t, ptr %11, i32 0, i32 0
  store ptr %9, ptr %12, align 8, !tbaa !74
  %13 = load ptr, ptr %2, align 8, !tbaa !72
  store ptr %13, ptr %1, align 8
  store i32 1, ptr %3, align 4
  br label %14

14:                                               ; preds = %8, %7
  call void @llvm.lifetime.end.p0(i64 8, ptr %2) #7
  %15 = load ptr, ptr %1, align 8
  ret ptr %15
}

; Function Attrs: nounwind uwtable
define ptr @dt_camera_import_job_create(ptr noundef %0, ptr noundef %1, ptr noundef %2) #0 {
  %4 = alloca ptr, align 8
  %5 = alloca ptr, align 8
  %6 = alloca ptr, align 8
  %7 = alloca ptr, align 8
  %8 = alloca ptr, align 8
  %9 = alloca i32, align 4
  %10 = alloca ptr, align 8
  %11 = alloca ptr, align 8
  store ptr %0, ptr %5, align 8, !tbaa !63
  store ptr %1, ptr %6, align 8, !tbaa !70
  store ptr %2, ptr %7, align 8, !tbaa !6
  call void @llvm.lifetime.start.p0(i64 8, ptr %8) #7
  %12 = call ptr (ptr, ptr, ...) @dt_control_job_create(ptr noundef @dt_camera_import_job_run, ptr noundef @.str.9)
  store ptr %12, ptr %8, align 8, !tbaa !13
  %13 = load ptr, ptr %8, align 8, !tbaa !13
  %14 = icmp ne ptr %13, null
  br i1 %14, label %16, label %15

15:                                               ; preds = %3
  store ptr null, ptr %4, align 8
  store i32 1, ptr %9, align 4
  br label %65

16:                                               ; preds = %3
  call void @llvm.lifetime.start.p0(i64 8, ptr %10) #7
  %17 = call ptr @dt_camera_import_alloc()
  store ptr %17, ptr %10, align 8, !tbaa !72
  %18 = load ptr, ptr %10, align 8, !tbaa !72
  %19 = icmp ne ptr %18, null
  br i1 %19, label %22, label %20

20:                                               ; preds = %16
  %21 = load ptr, ptr %8, align 8, !tbaa !13
  call void @dt_control_job_dispose(ptr noundef %21)
  store ptr null, ptr %4, align 8
  store i32 1, ptr %9, align 4
  br label %64

22:                                               ; preds = %16
  %23 = load ptr, ptr %6, align 8, !tbaa !70
  %24 = getelementptr inbounds nuw %struct.dt_camera_t, ptr %23, i32 0, i32 23
  store i32 1, ptr %24, align 8, !tbaa !85
  %25 = load ptr, ptr %8, align 8, !tbaa !13
  %26 = call ptr @dcgettext(ptr noundef null, ptr noundef @.str.10, i32 noundef 5) #7
  call void @dt_control_job_add_progress(ptr noundef %25, ptr noundef %26, i32 noundef 0)
  %27 = load ptr, ptr %8, align 8, !tbaa !13
  %28 = load ptr, ptr %10, align 8, !tbaa !72
  call void @dt_control_job_set_params(ptr noundef %27, ptr noundef %28, ptr noundef @dt_camera_import_cleanup)
  %29 = load ptr, ptr %7, align 8, !tbaa !6
  %30 = icmp ne ptr %29, null
  br i1 %30, label %31, label %43

31:                                               ; preds = %22
  %32 = load ptr, ptr %7, align 8, !tbaa !6
  %33 = getelementptr inbounds i8, ptr %32, i64 0
  %34 = load i8, ptr %33, align 1, !tbaa !65
  %35 = sext i8 %34 to i32
  %36 = icmp ne i32 %35, 0
  br i1 %36, label %37, label %43

37:                                               ; preds = %31
  %38 = load ptr, ptr %10, align 8, !tbaa !72
  %39 = getelementptr inbounds nuw %struct.dt_camera_import_t, ptr %38, i32 0, i32 0
  %40 = getelementptr inbounds nuw %struct.dt_camera_shared_t, ptr %39, i32 0, i32 0
  %41 = load ptr, ptr %40, align 8, !tbaa !74
  %42 = load ptr, ptr %7, align 8, !tbaa !6
  call void @dt_import_session_set_time(ptr noundef %41, ptr noundef %42)
  br label %43

43:                                               ; preds = %37, %31, %22
  call void @llvm.lifetime.start.p0(i64 8, ptr %11) #7
  %44 = call ptr @dt_conf_get_string_const(ptr noundef @.str.11)
  store ptr %44, ptr %11, align 8, !tbaa !6
  %45 = load ptr, ptr %10, align 8, !tbaa !72
  %46 = getelementptr inbounds nuw %struct.dt_camera_import_t, ptr %45, i32 0, i32 0
  %47 = getelementptr inbounds nuw %struct.dt_camera_shared_t, ptr %46, i32 0, i32 0
  %48 = load ptr, ptr %47, align 8, !tbaa !74
  %49 = load ptr, ptr %11, align 8, !tbaa !6
  call void @dt_import_session_set_name(ptr noundef %48, ptr noundef %49)
  %50 = load ptr, ptr %10, align 8, !tbaa !72
  %51 = getelementptr inbounds nuw %struct.dt_camera_import_t, ptr %50, i32 0, i32 4
  store double 0.000000e+00, ptr %51, align 8, !tbaa !79
  %52 = load ptr, ptr %5, align 8, !tbaa !63
  %53 = load ptr, ptr %10, align 8, !tbaa !72
  %54 = getelementptr inbounds nuw %struct.dt_camera_import_t, ptr %53, i32 0, i32 1
  store ptr %52, ptr %54, align 8, !tbaa !77
  %55 = load ptr, ptr %6, align 8, !tbaa !70
  %56 = load ptr, ptr %10, align 8, !tbaa !72
  %57 = getelementptr inbounds nuw %struct.dt_camera_import_t, ptr %56, i32 0, i32 2
  store ptr %55, ptr %57, align 8, !tbaa !92
  %58 = load ptr, ptr %10, align 8, !tbaa !72
  %59 = getelementptr inbounds nuw %struct.dt_camera_import_t, ptr %58, i32 0, i32 5
  store i32 0, ptr %59, align 8, !tbaa !78
  %60 = load ptr, ptr %8, align 8, !tbaa !13
  %61 = load ptr, ptr %10, align 8, !tbaa !72
  %62 = getelementptr inbounds nuw %struct.dt_camera_import_t, ptr %61, i32 0, i32 3
  store ptr %60, ptr %62, align 8, !tbaa !80
  %63 = load ptr, ptr %8, align 8, !tbaa !13
  store ptr %63, ptr %4, align 8
  store i32 1, ptr %9, align 4
  call void @llvm.lifetime.end.p0(i64 8, ptr %11) #7
  br label %64

64:                                               ; preds = %43, %20
  call void @llvm.lifetime.end.p0(i64 8, ptr %10) #7
  br label %65

65:                                               ; preds = %64, %15
  call void @llvm.lifetime.end.p0(i64 8, ptr %8) #7
  %66 = load ptr, ptr %4, align 8
  ret ptr %66
}