; Function Attrs: nounwind uwtable
define ptr @dt_camera_import_job_create(ptr noundef %0, ptr noundef %1, ptr noundef %2) local_unnamed_addr #0 {
  %4 = tail call ptr (ptr, ptr, ...) @dt_control_job_create(ptr noundef nonnull @dt_camera_import_job_run, ptr noundef nonnull @.str.9) #10
  %.not = icmp eq ptr %4, null
  br i1 %.not, label %24, label %5

5:                                                ; preds = %3
  %6 = tail call noalias dereferenceable_or_null(48) ptr @calloc(i64 noundef 1, i64 noundef 48) #11
  %.not.i = icmp eq ptr %6, null
  br i1 %.not.i, label %7, label %8

7:                                                ; preds = %5
  tail call void @dt_control_job_dispose(ptr noundef nonnull %4) #10
  br label %24

8:                                                ; preds = %5
  %9 = tail call ptr (...) @dt_import_session_new() #10
  store ptr %9, ptr %6, align 8, !tbaa !61
  %10 = getelementptr inbounds nuw i8, ptr %1, i64 32976
  store i32 1, ptr %10, align 8, !tbaa !74
  %11 = tail call ptr @dcgettext(ptr noundef null, ptr noundef nonnull @.str.10, i32 noundef 5) #10
  tail call void @dt_control_job_add_progress(ptr noundef nonnull %4, ptr noundef %11, i32 noundef 0) #10
  tail call void @dt_control_job_set_params(ptr noundef nonnull %4, ptr noundef nonnull %6, ptr noundef nonnull @dt_camera_import_cleanup) #10
  %.not27 = icmp eq ptr %2, null
  br i1 %.not27, label %16, label %12

12:                                               ; preds = %8
  %13 = load i8, ptr %2, align 1, !tbaa !56
  %.not28 = icmp eq i8 %13, 0
  br i1 %.not28, label %16, label %14

14:                                               ; preds = %12
  %15 = load ptr, ptr %6, align 8, !tbaa !61
  tail call void @dt_import_session_set_time(ptr noundef %15, ptr noundef nonnull %2) #10
  br label %16

16:                                               ; preds = %14, %12, %8
  %17 = tail call ptr @dt_conf_get_string_const(ptr noundef nonnull @.str.11) #10
  %18 = load ptr, ptr %6, align 8, !tbaa !61
  tail call void @dt_import_session_set_name(ptr noundef %18, ptr noundef %17) #10
  %19 = getelementptr inbounds nuw i8, ptr %6, i64 32
  store double 0.000000e+00, ptr %19, align 8, !tbaa !68
  %20 = getelementptr inbounds nuw i8, ptr %6, i64 8
  store ptr %0, ptr %20, align 8, !tbaa !66
  %21 = getelementptr inbounds nuw i8, ptr %6, i64 16
  store ptr %1, ptr %21, align 8, !tbaa !81
  %22 = getelementptr inbounds nuw i8, ptr %6, i64 40
  store i32 0, ptr %22, align 8, !tbaa !67
  %23 = getelementptr inbounds nuw i8, ptr %6, i64 24
  store ptr %4, ptr %23, align 8, !tbaa !69
  br label %24

24:                                               ; preds = %7, %16, %3
  %.0 = phi ptr [ null, %3 ], [ %4, %16 ], [ null, %7 ]
  ret ptr %.0
}